; Function Attrs: nounwind sspstrong uwtable
define dso_local void @tcg_gen_gvec_5_ool(i32 noundef %0, i32 noundef %1, i32 noundef %2, i32 noundef %3, i32 noundef %4, i32 noundef %5, i32 noundef %6, i32 noundef %7, ptr noundef readonly captures(none) %8) local_unnamed_addr #2 {
  switch i32 %5, label %12 [
    i32 8, label %10
    i32 16, label %10
    i32 32, label %10
  ]

10:                                               ; preds = %9, %9, %9
  %11 = icmp ule i32 %5, %6
  br label %check_size_align.exit.i

12:                                               ; preds = %9
  %13 = icmp eq i32 %5, %6
  br label %check_size_align.exit.i

check_size_align.exit.i:                          ; preds = %12, %10
  %.sink.i.i = phi i1 [ %11, %10 ], [ %13, %12 ]
  tail call void @llvm.assume(i1 %.sink.i.i)
  %14 = icmp ult i32 %6, 2049
  tail call void @llvm.assume(i1 %14)
  %15 = icmp samesign ugt i32 %6, 15
  %16 = select i1 %15, i32 15, i32 7
  %17 = and i32 %16, %6
  %18 = icmp eq i32 %17, 0
  tail call void @llvm.assume(i1 %18)
  %19 = add i32 %7, 2097152
  %20 = icmp ult i32 %19, 4194304
  br i1 %20, label %simd_desc.exit, label %21

21:                                               ; preds = %check_size_align.exit.i
  %22 = icmp ult i32 %7, 4194304
  tail call void @llvm.assume(i1 %22)
  br label %simd_desc.exit

simd_desc.exit:                                   ; preds = %check_size_align.exit.i, %21
  %23 = lshr i32 %5, 3
  %24 = lshr i32 %6, 3
  %25 = add nuw nsw i32 %24, 255
  %26 = icmp eq i32 %23, %24
  %27 = shl i32 %23, 8
  %28 = add i32 %27, 768
  %29 = and i32 %28, 768
  %30 = select i1 %26, i32 512, i32 %29
  %31 = and i32 %25, 255
  %32 = or disjoint i32 %31, %30
  %33 = shl i32 %7, 10
  %34 = or disjoint i32 %32, %33
  %35 = tail call ptr @tcg_constant_i32(i32 noundef %34) #10
  %36 = tail call ptr @tcg_temp_ebb_new_ptr() #10
  %37 = tail call ptr @tcg_temp_ebb_new_ptr() #10
  %38 = tail call ptr @tcg_temp_ebb_new_ptr() #10
  %39 = tail call ptr @tcg_temp_ebb_new_ptr() #10
  %40 = tail call ptr @tcg_temp_ebb_new_ptr() #10
  %41 = load ptr, ptr @tcg_env, align 8
  %42 = zext i32 %0 to i64
  tail call void @tcg_gen_addi_i64(ptr noundef %36, ptr noundef %41, i64 noundef range(i64 0, 4294967296) %42) #10
  %43 = load ptr, ptr @tcg_env, align 8
  %44 = zext i32 %1 to i64
  tail call void @tcg_gen_addi_i64(ptr noundef %37, ptr noundef %43, i64 noundef range(i64 0, 4294967296) %44) #10
  %45 = load ptr, ptr @tcg_env, align 8
  %46 = zext i32 %2 to i64
  tail call void @tcg_gen_addi_i64(ptr noundef %38, ptr noundef %45, i64 noundef range(i64 0, 4294967296) %46) #10
  %47 = load ptr, ptr @tcg_env, align 8
  %48 = zext i32 %3 to i64
  tail call void @tcg_gen_addi_i64(ptr noundef %39, ptr noundef %47, i64 noundef range(i64 0, 4294967296) %48) #10
  %49 = load ptr, ptr @tcg_env, align 8
  %50 = zext i32 %4 to i64
  tail call void @tcg_gen_addi_i64(ptr noundef %40, ptr noundef %49, i64 noundef range(i64 0, 4294967296) %50) #10
  tail call void %8(ptr noundef %36, ptr noundef %37, ptr noundef %38, ptr noundef %39, ptr noundef %40, ptr noundef %35) #10
  tail call void @tcg_temp_free_ptr(ptr noundef %36) #10
  tail call void @tcg_temp_free_ptr(ptr noundef %37) #10
  tail call void @tcg_temp_free_ptr(ptr noundef %38) #10
  tail call void @tcg_temp_free_ptr(ptr noundef %39) #10
  tail call void @tcg_temp_free_ptr(ptr noundef %40) #10
  ret void
}